target datalayout = "e-m:e-p270:32:32-p271:32:32-p272:64:64-i64:64-i128:128-f80:128-n8:16:32:64-S128"
target triple = "x86_64-pc-linux-gnu"

%struct.SDL_RenderViewState = type { i32, i32, %struct.SDL_Rect, %struct.SDL_Rect, %struct.SDL_Rect, %struct.SDL_Rect, i8, %struct.SDL_FPoint, i32, i32, i32, %struct.SDL_FRect, %struct.SDL_FRect, %struct.SDL_FPoint, %struct.SDL_FPoint, %struct.SDL_FPoint }
%struct.SDL_FRect = type { float, float, float, float }
%struct.SDL_FPoint = type { float, float }
%struct.SDL_FColor = type { float, float, float, float }
%struct.SDL_Rect = type { i32, i32, i32, i32 }
%struct.SDL_Texture = type { i32, i32, i32, i32, i32, float, float, i32, i32, i32, %struct.SDL_FColor, %struct.SDL_RenderViewState, ptr, ptr, ptr, ptr, i32, %struct.SDL_Rect, ptr, i32, i32, ptr, ptr, ptr }
%struct.GPU_TextureData = type { ptr, i32, i32, ptr, i32, %struct.SDL_Rect }

; Function Attrs: nounwind uwtable
define internal zeroext i1 @GPU_LockTexture(ptr noundef %0, ptr noundef %1, ptr noundef %2, ptr noundef %3, ptr noundef %4) #0 {
  %6 = alloca ptr, align 8
  %7 = alloca ptr, align 8
  %8 = alloca ptr, align 8
  %9 = alloca ptr, align 8
  %10 = alloca ptr, align 8
  %11 = alloca ptr, align 8
  store ptr %0, ptr %6, align 8
  store ptr %1, ptr %7, align 8
  store ptr %2, ptr %8, align 8
  store ptr %3, ptr %9, align 8
  store ptr %4, ptr %10, align 8
  call void @llvm.lifetime.start.p0(i64 8, ptr %11) #10
  %12 = load ptr, ptr %7, align 8
  %13 = getelementptr inbounds nuw %struct.SDL_Texture, ptr %12, i32 0, i32 21
  %14 = load ptr, ptr %13, align 8
  store ptr %14, ptr %11, align 8
  %15 = load ptr, ptr %11, align 8
  %16 = getelementptr inbounds nuw %struct.GPU_TextureData, ptr %15, i32 0, i32 5
  %17 = load ptr, ptr %8, align 8
  call void @llvm.memcpy.p0.p0.i64(ptr align 4 %16, ptr align 4 %17, i64 16, i1 false)
  %18 = load ptr, ptr %11, align 8
  %19 = getelementptr inbounds nuw %struct.GPU_TextureData, ptr %18, i32 0, i32 3
  %20 = load ptr, ptr %19, align 8
  %21 = load ptr, ptr %8, align 8
  %22 = getelementptr inbounds nuw %struct.SDL_Rect, ptr %21, i32 0, i32 1
  %23 = load i32, ptr %22, align 4
  %24 = load ptr, ptr %11, align 8
  %25 = getelementptr inbounds nuw %struct.GPU_TextureData, ptr %24, i32 0, i32 4
  %26 = load i32, ptr %25, align 8
  %27 = mul nsw i32 %23, %26
  %28 = sext i32 %27 to i64
  %29 = getelementptr inbounds i8, ptr %20, i64 %28
  %30 = load ptr, ptr %8, align 8
  %31 = getelementptr inbounds nuw %struct.SDL_Rect, ptr %30, i32 0, i32 0
  %32 = load i32, ptr %31, align 4
  %33 = load ptr, ptr %7, align 8
  %34 = getelementptr inbounds nuw %struct.SDL_Texture, ptr %33, i32 0, i32 0
  %35 = load i32, ptr %34, align 8
  %36 = icmp ne i32 %35, 0
  br i1 %36, label %37, label %67

37:                                               ; preds = %5
  %38 = load ptr, ptr %7, align 8
  %39 = getelementptr inbounds nuw %struct.SDL_Texture, ptr %38, i32 0, i32 0
  %40 = load i32, ptr %39, align 8
  %41 = lshr i32 %40, 28
  %42 = and i32 %41, 15
  %43 = icmp ne i32 %42, 1
  br i1 %43, label %44, label %67

44:                                               ; preds = %37
  %45 = load ptr, ptr %7, align 8
  %46 = getelementptr inbounds nuw %struct.SDL_Texture, ptr %45, i32 0, i32 0
  %47 = load i32, ptr %46, align 8
  %48 = icmp eq i32 %47, 844715353
  br i1 %48, label %64, label %49

49:                                               ; preds = %44
  %50 = load ptr, ptr %7, align 8
  %51 = getelementptr inbounds nuw %struct.SDL_Texture, ptr %50, i32 0, i32 0
  %52 = load i32, ptr %51, align 8
  %53 = icmp eq i32 %52, 1498831189
  br i1 %53, label %64, label %54

54:                                               ; preds = %49
  %55 = load ptr, ptr %7, align 8
  %56 = getelementptr inbounds nuw %struct.SDL_Texture, ptr %55, i32 0, i32 0
  %57 = load i32, ptr %56, align 8
  %58 = icmp eq i32 %57, 1431918169
  br i1 %58, label %64, label %59

59:                                               ; preds = %54
  %60 = load ptr, ptr %7, align 8
  %61 = getelementptr inbounds nuw %struct.SDL_Texture, ptr %60, i32 0, i32 0
  %62 = load i32, ptr %61, align 8
  %63 = icmp eq i32 %62, 808530000
  br label %64

64:                                               ; preds = %59, %54, %49, %44
  %65 = phi i1 [ true, %54 ], [ true, %49 ], [ true, %44 ], [ %63, %59 ]
  %66 = select i1 %65, i32 2, i32 1
  br label %73

67:                                               ; preds = %37, %5
  %68 = load ptr, ptr %7, align 8
  %69 = getelementptr inbounds nuw %struct.SDL_Texture, ptr %68, i32 0, i32 0
  %70 = load i32, ptr %69, align 8
  %71 = lshr i32 %70, 0
  %72 = and i32 %71, 255
  br label %73

73:                                               ; preds = %67, %64
  %74 = phi i32 [ %66, %64 ], [ %72, %67 ]
  %75 = mul i32 %32, %74
  %76 = zext i32 %75 to i64
  %77 = getelementptr inbounds nuw i8, ptr %29, i64 %76
  %78 = load ptr, ptr %9, align 8
  store ptr %77, ptr %78, align 8
  %79 = load ptr, ptr %11, align 8
  %80 = getelementptr inbounds nuw %struct.GPU_TextureData, ptr %79, i32 0, i32 4
  %81 = load i32, ptr %80, align 8
  %82 = load ptr, ptr %10, align 8
  store i32 %81, ptr %82, align 4
  call void @llvm.lifetime.end.p0(i64 8, ptr %11) #10
  ret i1 true
}